target datalayout = "e-m:e-p270:32:32-p271:32:32-p272:64:64-i64:64-i128:128-f80:128-n8:16:32:64-S128"
target triple = "x86_64-pc-linux-gnu"

%"struct.cv::structured_light::GrayCodePattern::Params" = type { i32, i32 }
%"class.cv::structured_light::GrayCodePattern_Impl" = type { %"class.cv::structured_light::GrayCodePattern", %"struct.cv::structured_light::GrayCodePattern::Params", i64, i64, i64, i64, i64 }
%"class.cv::structured_light::GrayCodePattern" = type { %"class.cv::structured_light::StructuredLightPattern" }
%"class.cv::structured_light::StructuredLightPattern" = type { %"class.cv::Algorithm" }
%"class.cv::Algorithm" = type { ptr }

; Function Attrs: mustprogress nounwind uwtable
define void @_ZN2cv16structured_light20GrayCodePattern_Impl28computeNumberOfPatternImagesEv(ptr noundef nonnull align 8 dereferenceable(56) %0) #4 align 2 {
  %2 = alloca ptr, align 8
  store ptr %0, ptr %2, align 8
  %3 = load ptr, ptr %2, align 8
  %4 = getelementptr inbounds %"class.cv::structured_light::GrayCodePattern_Impl", ptr %3, i32 0, i32 1
  %5 = getelementptr inbounds %"struct.cv::structured_light::GrayCodePattern::Params", ptr %4, i32 0, i32 0
  %6 = load i32, ptr %5, align 8
  %7 = sitofp i32 %6 to double
  %8 = call double @log(double noundef %7) #3
  %9 = call double @log(double noundef 2.000000e+00) #3
  %10 = fdiv double %8, %9
  %11 = call double @llvm.ceil.f64(double %10)
  %12 = fptoui double %11 to i64
  %13 = getelementptr inbounds %"class.cv::structured_light::GrayCodePattern_Impl", ptr %3, i32 0, i32 4
  store i64 %12, ptr %13, align 8
  %14 = getelementptr inbounds %"class.cv::structured_light::GrayCodePattern_Impl", ptr %3, i32 0, i32 1
  %15 = getelementptr inbounds %"struct.cv::structured_light::GrayCodePattern::Params", ptr %14, i32 0, i32 1
  %16 = load i32, ptr %15, align 4
  %17 = sitofp i32 %16 to double
  %18 = call double @log(double noundef %17) #3
  %19 = call double @log(double noundef 2.000000e+00) #3
  %20 = fdiv double %18, %19
  %21 = call double @llvm.ceil.f64(double %20)
  %22 = fptoui double %21 to i64
  %23 = getelementptr inbounds %"class.cv::structured_light::GrayCodePattern_Impl", ptr %3, i32 0, i32 3
  store i64 %22, ptr %23, align 8
  %24 = getelementptr inbounds %"class.cv::structured_light::GrayCodePattern_Impl", ptr %3, i32 0, i32 4
  %25 = load i64, ptr %24, align 8
  %26 = mul i64 2, %25
  %27 = getelementptr inbounds %"class.cv::structured_light::GrayCodePattern_Impl", ptr %3, i32 0, i32 3
  %28 = load i64, ptr %27, align 8
  %29 = mul i64 2, %28
  %30 = add i64 %26, %29
  %31 = getelementptr inbounds %"class.cv::structured_light::GrayCodePattern_Impl", ptr %3, i32 0, i32 2
  store i64 %30, ptr %31, align 8
  ret void
}