; Function Attrs: mustprogress nofree nounwind willreturn memory(write, argmem: readwrite) uwtable
define void @_ZN2cv16structured_light20GrayCodePattern_Impl28computeNumberOfPatternImagesEv(ptr nocapture noundef nonnull align 8 dereferenceable(56) %0) local_unnamed_addr #6 align 2 {
  %2 = getelementptr inbounds i8, ptr %0, i64 8
  %3 = load i32, ptr %2, align 8
  %4 = sitofp i32 %3 to double
  %5 = tail call double @log(double noundef %4) #25
  %6 = fdiv double %5, 0x3FE62E42FEFA39EF
  %7 = tail call double @llvm.ceil.f64(double %6)
  %8 = fptoui double %7 to i64
  %9 = getelementptr inbounds i8, ptr %0, i64 32
  store i64 %8, ptr %9, align 8
  %10 = getelementptr inbounds i8, ptr %0, i64 12
  %11 = load i32, ptr %10, align 4
  %12 = sitofp i32 %11 to double
  %13 = tail call double @log(double noundef %12) #25
  %14 = fdiv double %13, 0x3FE62E42FEFA39EF
  %15 = tail call double @llvm.ceil.f64(double %14)
  %16 = fptoui double %15 to i64
  %17 = getelementptr inbounds i8, ptr %0, i64 24
  store i64 %16, ptr %17, align 8
  %18 = load i64, ptr %9, align 8
  %19 = add i64 %18, %16
  %20 = shl i64 %19, 1
  %21 = getelementptr inbounds i8, ptr %0, i64 16
  store i64 %20, ptr %21, align 8
  ret void
}